target datalayout = "e-m:e-p270:32:32-p271:32:32-p272:64:64-i64:64-i128:128-f80:128-n8:16:32:64-S128"
target triple = "x86_64-pc-linux-gnu"

%struct.strbuf = type { i64, i64, ptr }
%struct.__va_list_tag = type { i32, i32, ptr, ptr }

@get_pathname.pathname_array = internal global [4 x %struct.strbuf] [%struct.strbuf { i64 0, i64 0, ptr @strbuf_slopbuf }, %struct.strbuf { i64 0, i64 0, ptr @strbuf_slopbuf }, %struct.strbuf { i64 0, i64 0, ptr @strbuf_slopbuf }, %struct.strbuf { i64 0, i64 0, ptr @strbuf_slopbuf }], align 16
@strbuf_slopbuf = external global [0 x i8], align 1
@get_pathname.index = internal global i32 0, align 4
@.str.11 = private unnamed_addr constant [3 x i8] c"./\00", align 1
@.str.36 = private unnamed_addr constant [11 x i8] c"./strbuf.h\00", align 1
@.str.37 = private unnamed_addr constant [30 x i8] c"strbuf_setlen() beyond buffer\00", align 1

; Function Attrs: inlinehint nounwind uwtable
define internal zeroext i1 @skip_prefix(ptr noundef %0, ptr noundef %1, ptr noundef %2) #2 {
  %4 = alloca i1, align 1
  %5 = alloca ptr, align 8
  %6 = alloca ptr, align 8
  %7 = alloca ptr, align 8
  store ptr %0, ptr %5, align 8, !tbaa !43
  store ptr %1, ptr %6, align 8, !tbaa !43
  store ptr %2, ptr %7, align 8, !tbaa !82
  br label %8

8:                                                ; preds = %16, %3
  %9 = load ptr, ptr %6, align 8, !tbaa !43
  %10 = load i8, ptr %9, align 1, !tbaa !18
  %11 = icmp ne i8 %10, 0
  br i1 %11, label %15, label %12

12:                                               ; preds = %8
  %13 = load ptr, ptr %5, align 8, !tbaa !43
  %14 = load ptr, ptr %7, align 8, !tbaa !82
  store ptr %13, ptr %14, align 8, !tbaa !43
  store i1 true, ptr %4, align 1
  br label %27

15:                                               ; preds = %8
  br label %16

16:                                               ; preds = %15
  %17 = load ptr, ptr %5, align 8, !tbaa !43
  %18 = getelementptr inbounds nuw i8, ptr %17, i32 1
  store ptr %18, ptr %5, align 8, !tbaa !43
  %19 = load i8, ptr %17, align 1, !tbaa !18
  %20 = sext i8 %19 to i32
  %21 = load ptr, ptr %6, align 8, !tbaa !43
  %22 = getelementptr inbounds nuw i8, ptr %21, i32 1
  store ptr %22, ptr %6, align 8, !tbaa !43
  %23 = load i8, ptr %21, align 1, !tbaa !18
  %24 = sext i8 %23 to i32
  %25 = icmp eq i32 %20, %24
  br i1 %25, label %8, label %26, !llvm.loop !84

26:                                               ; preds = %16
  store i1 false, ptr %4, align 1
  br label %27

27:                                               ; preds = %26, %12
  %28 = load i1, ptr %4, align 1
  ret i1 %28
}

; Function Attrs: inlinehint nounwind uwtable
define internal void @strbuf_setlen(ptr noundef %0, i64 noundef %1) #2 {
  %3 = alloca ptr, align 8
  %4 = alloca i64, align 8
  store ptr %0, ptr %3, align 8, !tbaa !8
  store i64 %1, ptr %4, align 8, !tbaa !11
  %5 = load i64, ptr %4, align 8, !tbaa !11
  %6 = load ptr, ptr %3, align 8, !tbaa !8
  %7 = getelementptr inbounds nuw %struct.strbuf, ptr %6, i32 0, i32 0
  %8 = load i64, ptr %7, align 8, !tbaa !13
  %9 = icmp ne i64 %8, 0
  br i1 %9, label %10, label %15

10:                                               ; preds = %2
  %11 = load ptr, ptr %3, align 8, !tbaa !8
  %12 = getelementptr inbounds nuw %struct.strbuf, ptr %11, i32 0, i32 0
  %13 = load i64, ptr %12, align 8, !tbaa !13
  %14 = sub i64 %13, 1
  br label %16

15:                                               ; preds = %2
  br label %16

16:                                               ; preds = %15, %10
  %17 = phi i64 [ %14, %10 ], [ 0, %15 ]
  %18 = icmp ugt i64 %5, %17
  br i1 %18, label %19, label %20

19:                                               ; preds = %16
  call void (ptr, i32, ptr, ...) @BUG_fl(ptr noundef @.str.36, i32 noundef 167, ptr noundef @.str.37) #13
  unreachable

20:                                               ; preds = %16
  %21 = load i64, ptr %4, align 8, !tbaa !11
  %22 = load ptr, ptr %3, align 8, !tbaa !8
  %23 = getelementptr inbounds nuw %struct.strbuf, ptr %22, i32 0, i32 1
  store i64 %21, ptr %23, align 8, !tbaa !16
  %24 = load ptr, ptr %3, align 8, !tbaa !8
  %25 = getelementptr inbounds nuw %struct.strbuf, ptr %24, i32 0, i32 2
  %26 = load ptr, ptr %25, align 8, !tbaa !17
  %27 = icmp ne ptr %26, @strbuf_slopbuf
  br i1 %27, label %28, label %34

28:                                               ; preds = %20
  %29 = load ptr, ptr %3, align 8, !tbaa !8
  %30 = getelementptr inbounds nuw %struct.strbuf, ptr %29, i32 0, i32 2
  %31 = load ptr, ptr %30, align 8, !tbaa !17
  %32 = load i64, ptr %4, align 8, !tbaa !11
  %33 = getelementptr inbounds nuw i8, ptr %31, i64 %32
  store i8 0, ptr %33, align 1, !tbaa !18
  br label %35

34:                                               ; preds = %20
  br label %35

35:                                               ; preds = %34, %28
  ret void
}

; Function Attrs: nounwind uwtable
define internal ptr @cleanup_path(ptr noundef %0) #0 {
  %2 = alloca ptr, align 8
  store ptr %0, ptr %2, align 8, !tbaa !43
  %3 = load ptr, ptr %2, align 8, !tbaa !43
  %4 = call zeroext i1 @skip_prefix(ptr noundef %3, ptr noundef @.str.11, ptr noundef %2)
  br i1 %4, label %5, label %15

5:                                                ; preds = %1
  br label %6

6:                                                ; preds = %11, %5
  %7 = load ptr, ptr %2, align 8, !tbaa !43
  %8 = load i8, ptr %7, align 1, !tbaa !18
  %9 = sext i8 %8 to i32
  %10 = icmp eq i32 %9, 47
  br i1 %10, label %11, label %14

11:                                               ; preds = %6
  %12 = load ptr, ptr %2, align 8, !tbaa !43
  %13 = getelementptr inbounds nuw i8, ptr %12, i32 1
  store ptr %13, ptr %2, align 8, !tbaa !43
  br label %6, !llvm.loop !75

14:                                               ; preds = %6
  br label %15

15:                                               ; preds = %14, %1
  %16 = load ptr, ptr %2, align 8, !tbaa !43
  ret ptr %16
}

; Function Attrs: nounwind uwtable
define dso_local ptr @get_pathname() #0 {
  %1 = alloca ptr, align 8
  call void @llvm.lifetime.start.p0(i64 8, ptr %1) #12
  %2 = load i32, ptr @get_pathname.index, align 4, !tbaa !4
  %3 = sext i32 %2 to i64
  %4 = getelementptr inbounds [4 x %struct.strbuf], ptr @get_pathname.pathname_array, i64 0, i64 %3
  store ptr %4, ptr %1, align 8, !tbaa !8
  %5 = load i32, ptr @get_pathname.index, align 4, !tbaa !4
  %6 = add nsw i32 %5, 1
  %7 = sext i32 %6 to i64
  %8 = urem i64 %7, 4
  %9 = trunc i64 %8 to i32
  store i32 %9, ptr @get_pathname.index, align 4, !tbaa !4
  %10 = load ptr, ptr %1, align 8, !tbaa !8
  call void @strbuf_setlen(ptr noundef %10, i64 noundef 0)
  %11 = load ptr, ptr %1, align 8, !tbaa !8
  call void @llvm.lifetime.end.p0(i64 8, ptr %1) #12
  ret ptr %11
}

; Function Attrs: nounwind uwtable
define dso_local ptr @mkpath(ptr noundef %0, ...) #0 {
  %2 = alloca ptr, align 8
  %3 = alloca [1 x %struct.__va_list_tag], align 16
  %4 = alloca ptr, align 8
  store ptr %0, ptr %2, align 8, !tbaa !43
  call void @llvm.lifetime.start.p0(i64 24, ptr %3) #12
  call void @llvm.lifetime.start.p0(i64 8, ptr %4) #12
  %5 = call ptr @get_pathname()
  store ptr %5, ptr %4, align 8, !tbaa !8
  %6 = getelementptr inbounds [1 x %struct.__va_list_tag], ptr %3, i64 0, i64 0
  call void @llvm.va_start.p0(ptr %6)
  %7 = load ptr, ptr %4, align 8, !tbaa !8
  %8 = load ptr, ptr %2, align 8, !tbaa !43
  %9 = getelementptr inbounds [1 x %struct.__va_list_tag], ptr %3, i64 0, i64 0
  call void @strbuf_vaddf(ptr noundef %7, ptr noundef %8, ptr noundef %9)
  %10 = getelementptr inbounds [1 x %struct.__va_list_tag], ptr %3, i64 0, i64 0
  call void @llvm.va_end.p0(ptr %10)
  %11 = load ptr, ptr %4, align 8, !tbaa !8
  %12 = getelementptr inbounds nuw %struct.strbuf, ptr %11, i32 0, i32 2
  %13 = load ptr, ptr %12, align 8, !tbaa !17
  %14 = call ptr @cleanup_path(ptr noundef %13)
  call void @llvm.lifetime.end.p0(i64 8, ptr %4) #12
  call void @llvm.lifetime.end.p0(i64 24, ptr %3) #12
  ret ptr %14
}