; Function Attrs: nounwind uwtable
define dso_local ptr @mkpath(ptr noundef %0, ...) local_unnamed_addr #3 {
  %2 = alloca [1 x %struct.__va_list_tag], align 16
  call void @llvm.lifetime.start.p0(i64 24, ptr nonnull %2) #29
  %3 = load i32, ptr @get_pathname.index, align 4, !tbaa !4
  %4 = zext nneg i32 %3 to i64
  %5 = getelementptr inbounds nuw [4 x %struct.strbuf], ptr @get_pathname.pathname_array, i64 0, i64 %4
  %6 = add nuw nsw i32 %3, 1
  %7 = and i32 %6, 3
  store i32 %7, ptr @get_pathname.index, align 4, !tbaa !4
  %8 = getelementptr inbounds nuw i8, ptr %5, i64 8
  store i64 0, ptr %8, align 8, !tbaa !8
  %9 = getelementptr inbounds nuw i8, ptr %5, i64 16
  %10 = load ptr, ptr %9, align 8, !tbaa !13
  %.not9.i.i = icmp eq ptr %10, @strbuf_slopbuf
  br i1 %.not9.i.i, label %get_pathname.exit, label %11

11:                                               ; preds = %1
  store i8 0, ptr %10, align 1, !tbaa !14
  br label %get_pathname.exit

get_pathname.exit:                                ; preds = %1, %11
  call void @llvm.va_start.p0(ptr nonnull %2)
  call void @strbuf_vaddf(ptr noundef nonnull %5, ptr noundef %0, ptr noundef nonnull %2) #29
  call void @llvm.va_end.p0(ptr nonnull %2)
  %12 = load ptr, ptr %9, align 8, !tbaa !13
  %scevgep.i = getelementptr i8, ptr %12, i64 2
  br label %13

13:                                               ; preds = %14, %get_pathname.exit
  %.07.i.i = phi ptr [ %12, %get_pathname.exit ], [ %16, %14 ]
  %.06.i.idx.i = phi i64 [ 0, %get_pathname.exit ], [ %.06.i.add.i, %14 ]
  %exitcond.i = icmp eq i64 %.06.i.idx.i, 2
  br i1 %exitcond.i, label %skip_prefix.exit.i, label %14

14:                                               ; preds = %13
  %.06.i.ptr.i = getelementptr inbounds nuw i8, ptr @.str.11, i64 %.06.i.idx.i
  %15 = load i8, ptr %.06.i.ptr.i, align 1, !tbaa !14
  %16 = getelementptr inbounds nuw i8, ptr %.07.i.i, i64 1
  %17 = load i8, ptr %.07.i.i, align 1, !tbaa !14
  %.06.i.add.i = add nuw nsw i64 %.06.i.idx.i, 1
  %18 = icmp eq i8 %17, %15
  br i1 %18, label %13, label %cleanup_path.exit, !llvm.loop !66

skip_prefix.exit.i:                               ; preds = %13, %skip_prefix.exit.i
  %.1.i = phi ptr [ %21, %skip_prefix.exit.i ], [ %scevgep.i, %13 ]
  %19 = load i8, ptr %.1.i, align 1, !tbaa !14
  %20 = icmp eq i8 %19, 47
  %21 = getelementptr inbounds nuw i8, ptr %.1.i, i64 1
  br i1 %20, label %skip_prefix.exit.i, label %cleanup_path.exit, !llvm.loop !67

cleanup_path.exit:                                ; preds = %14, %skip_prefix.exit.i
  %.0.i = phi ptr [ %.1.i, %skip_prefix.exit.i ], [ %12, %14 ]
  call void @llvm.lifetime.end.p0(i64 24, ptr nonnull %2) #29
  ret ptr %.0.i
}